; Function Attrs: mustprogress uwtable
define internal void @_ZN2cvL8reduceR_IhhNS_5OpMaxIhEENS_5OpNopIhhhEEEEvRKNS_3MatERS5_(ptr noundef nonnull align 8 dereferenceable(96) %0, ptr noundef nonnull align 8 dereferenceable(96) %1) unnamed_addr #1 personality ptr @__gxx_personality_v0 {
  %3 = alloca %"struct.cv::OpMax", align 1
  %4 = alloca %"struct.cv::OpNop.18", align 1
  %5 = alloca %"class.cv::ReduceR_Invoker.19", align 8
  %6 = alloca %"class.cv::Range", align 4
  call void @llvm.lifetime.start.p0(i64 1, ptr nonnull %3) #17
  call void @llvm.lifetime.start.p0(i64 1, ptr nonnull %4) #17
  call void @llvm.lifetime.start.p0(i64 1088, ptr nonnull %5) #17
  store ptr getelementptr inbounds nuw inrange(-16, 24) (i8, ptr @_ZTVN2cv15ReduceR_InvokerIhhhNS_5OpMaxIhEENS_5OpNopIhhhEEEE, i64 16), ptr %5, align 8, !tbaa !109
  %7 = getelementptr inbounds nuw i8, ptr %5, i64 8
  store ptr %0, ptr %7, align 8, !tbaa !57
  %8 = getelementptr inbounds nuw i8, ptr %5, i64 16
  store ptr %1, ptr %8, align 8, !tbaa !57
  %9 = getelementptr inbounds nuw i8, ptr %5, i64 24
  store ptr %3, ptr %9, align 8, !tbaa !137
  %10 = getelementptr inbounds nuw i8, ptr %5, i64 32
  store ptr %4, ptr %10, align 8, !tbaa !139
  %11 = getelementptr inbounds nuw i8, ptr %0, i64 64
  %12 = load ptr, ptr %11, align 8, !tbaa !102
  %13 = getelementptr inbounds nuw i8, ptr %12, i64 4
  %14 = load i32, ptr %13, align 4, !tbaa !3
  %15 = getelementptr inbounds nuw i8, ptr %5, i64 40
  %16 = load i32, ptr %0, align 8, !tbaa !27
  %17 = lshr i32 %16, 3
  %18 = and i32 %17, 511
  %19 = add nuw nsw i32 %18, 1
  %20 = mul nsw i32 %19, %14
  %21 = sext i32 %20 to i64
  %22 = getelementptr inbounds nuw i8, ptr %5, i64 56
  store ptr %22, ptr %15, align 8, !tbaa !141
  %23 = getelementptr inbounds nuw i8, ptr %5, i64 48
  %.not.i.i.i = icmp ugt i32 %20, 1032
  store i64 %21, ptr %23, align 8, !tbaa !143
  br i1 %.not.i.i.i, label %24, label %28

24:                                               ; preds = %2
  %25 = invoke noalias noundef nonnull ptr @_Znam(i64 noundef %21) #21
          to label %.noexc.i unwind label %26

.noexc.i:                                         ; preds = %24
  store ptr %25, ptr %15, align 8, !tbaa !141
  br label %28

common.resume:                                    ; preds = %43, %26
  %common.resume.op = phi { ptr, i32 } [ %27, %26 ], [ %44, %43 ]
  resume { ptr, i32 } %common.resume.op

26:                                               ; preds = %24
  %27 = landingpad { ptr, i32 }
          cleanup
  call void @_ZN2cv16ParallelLoopBodyD2Ev(ptr noundef nonnull align 8 dereferenceable(1088) %5) #17
  br label %common.resume

28:                                               ; preds = %2, %.noexc.i
  call void @llvm.lifetime.start.p0(i64 8, ptr nonnull %6) #17
  store i32 0, ptr %6, align 4, !tbaa !118
  %29 = getelementptr inbounds nuw i8, ptr %6, i64 4
  store i32 %20, ptr %29, align 4, !tbaa !120
  %30 = shl i32 %16, 2
  %31 = and i32 %30, 28
  %32 = lshr i32 675553809, %31
  %33 = and i32 %32, 15
  %34 = mul nsw i32 %14, %33
  %35 = sdiv i32 %34, 64
  %36 = sitofp i32 %35 to double
  invoke void @_ZN2cv13parallel_for_ERKNS_5RangeERKNS_16ParallelLoopBodyEd(ptr noundef nonnull align 4 dereferenceable(8) %6, ptr noundef nonnull align 8 dereferenceable(8) %5, double noundef %36)
          to label %37 unwind label %43

37:                                               ; preds = %28
  call void @llvm.lifetime.end.p0(i64 8, ptr nonnull %6) #17
  store ptr getelementptr inbounds nuw inrange(-16, 24) (i8, ptr @_ZTVN2cv15ReduceR_InvokerIhhhNS_5OpMaxIhEENS_5OpNopIhhhEEEE, i64 16), ptr %5, align 8, !tbaa !109
  %38 = load ptr, ptr %15, align 8, !tbaa !141
  %.not.i.i.i16 = icmp eq ptr %38, %22
  br i1 %.not.i.i.i16, label %_ZN2cv15ReduceR_InvokerIhhhNS_5OpMaxIhEENS_5OpNopIhhhEEED2Ev.exit, label %39

39:                                               ; preds = %37
  %40 = icmp eq ptr %38, null
  br i1 %40, label %42, label %41

41:                                               ; preds = %39
  call void @_ZdaPv(ptr noundef nonnull %38) #19
  br label %42

42:                                               ; preds = %41, %39
  store ptr %22, ptr %15, align 8, !tbaa !141
  store i64 1032, ptr %23, align 8, !tbaa !143
  br label %_ZN2cv15ReduceR_InvokerIhhhNS_5OpMaxIhEENS_5OpNopIhhhEEED2Ev.exit

_ZN2cv15ReduceR_InvokerIhhhNS_5OpMaxIhEENS_5OpNopIhhhEEED2Ev.exit: ; preds = %37, %42
  call void @_ZN2cv16ParallelLoopBodyD2Ev(ptr noundef nonnull align 8 dereferenceable(1088) %5) #17
  call void @llvm.lifetime.end.p0(i64 1088, ptr nonnull %5) #17
  call void @llvm.lifetime.end.p0(i64 1, ptr nonnull %4) #17
  call void @llvm.lifetime.end.p0(i64 1, ptr nonnull %3) #17
  ret void

43:                                               ; preds = %28
  %44 = landingpad { ptr, i32 }
          cleanup
  call void @llvm.lifetime.end.p0(i64 8, ptr nonnull %6) #17
  call void @_ZN2cv15ReduceR_InvokerIhhhNS_5OpMaxIhEENS_5OpNopIhhhEEED2Ev(ptr noundef nonnull align 8 dereferenceable(1088) %5) #17
  call void @llvm.lifetime.end.p0(i64 1088, ptr nonnull %5) #17
  call void @llvm.lifetime.end.p0(i64 1, ptr nonnull %4) #17
  call void @llvm.lifetime.end.p0(i64 1, ptr nonnull %3) #17
  br label %common.resume
}